target datalayout = "e-m:e-p270:32:32-p271:32:32-p272:64:64-i64:64-i128:128-f80:128-n8:16:32:64-S128"
target triple = "x86_64-pc-linux-gnu"

%struct.AVFilterContext = type { ptr, ptr, ptr, ptr, ptr, i32, ptr, ptr, i32, ptr, ptr, i32, i32, ptr, ptr, ptr, ptr, i32, ptr, i32, i32 }
%struct.AmplifyContext = type { ptr, ptr, i32, float, float, float, i32, float, float, i32, i32, i32, i32, [4 x i32], [4 x i32], ptr }
%struct.ThreadData = type { ptr, ptr }
%struct.AVFilterLink = type { ptr, ptr, ptr, ptr, i32, i32, i32, i32, %struct.AVRational, i32, i32, i32, %struct.AVChannelLayout, %struct.AVRational, ptr, i32, %struct.AVFilterFormatsConfig, %struct.AVFilterFormatsConfig }
%struct.AVChannelLayout = type { i32, i32, %union.anon.1, ptr }
%union.anon.1 = type { i64 }
%struct.AVRational = type { i32, i32 }
%struct.AVFilterFormatsConfig = type { ptr, ptr, ptr, ptr, ptr }
%struct.AVFrame = type { [8 x ptr], [8 x i32], ptr, i32, i32, i32, i32, i32, %struct.AVRational, i64, i64, %struct.AVRational, i32, ptr, i32, i32, [8 x ptr], ptr, i32, ptr, i32, i32, i32, i32, i32, i32, i32, i64, ptr, i32, ptr, ptr, i64, i64, i64, i64, ptr, %struct.AVChannelLayout, i64 }

; Function Attrs: nounwind uwtable
define internal i32 @filter_frame(ptr noundef %0, ptr noundef %1) #2 {
  %3 = alloca i32, align 4
  %4 = alloca ptr, align 8
  %5 = alloca ptr, align 8
  %6 = alloca ptr, align 8
  %7 = alloca ptr, align 8
  %8 = alloca ptr, align 8
  %9 = alloca %struct.ThreadData, align 8
  %10 = alloca ptr, align 8
  %11 = alloca i32, align 4
  store ptr %0, ptr %4, align 8, !tbaa !35
  store ptr %1, ptr %5, align 8, !tbaa !37
  call void @llvm.lifetime.start.p0(i64 8, ptr %6) #9
  %12 = load ptr, ptr %4, align 8, !tbaa !35
  %13 = getelementptr inbounds nuw %struct.AVFilterLink, ptr %12, i32 0, i32 2
  %14 = load ptr, ptr %13, align 8, !tbaa !39
  store ptr %14, ptr %6, align 8, !tbaa !4
  call void @llvm.lifetime.start.p0(i64 8, ptr %7) #9
  %15 = load ptr, ptr %6, align 8, !tbaa !4
  %16 = getelementptr inbounds nuw %struct.AVFilterContext, ptr %15, i32 0, i32 7
  %17 = load ptr, ptr %16, align 8, !tbaa !47
  %18 = getelementptr inbounds ptr, ptr %17, i64 0
  %19 = load ptr, ptr %18, align 8, !tbaa !35
  store ptr %19, ptr %7, align 8, !tbaa !35
  call void @llvm.lifetime.start.p0(i64 8, ptr %8) #9
  %20 = load ptr, ptr %6, align 8, !tbaa !4
  %21 = getelementptr inbounds nuw %struct.AVFilterContext, ptr %20, i32 0, i32 9
  %22 = load ptr, ptr %21, align 8, !tbaa !9
  store ptr %22, ptr %8, align 8, !tbaa !22
  call void @llvm.lifetime.start.p0(i64 16, ptr %9) #9
  call void @llvm.lifetime.start.p0(i64 8, ptr %10) #9
  %23 = load ptr, ptr %8, align 8, !tbaa !22
  %24 = getelementptr inbounds nuw %struct.AmplifyContext, ptr %23, i32 0, i32 10
  %25 = load i32, ptr %24, align 8, !tbaa !32
  %26 = load ptr, ptr %8, align 8, !tbaa !22
  %27 = getelementptr inbounds nuw %struct.AmplifyContext, ptr %26, i32 0, i32 9
  %28 = load i32, ptr %27, align 4, !tbaa !29
  %29 = icmp slt i32 %25, %28
  br i1 %29, label %30, label %44

30:                                               ; preds = %2
  %31 = load ptr, ptr %5, align 8, !tbaa !37
  %32 = load ptr, ptr %8, align 8, !tbaa !22
  %33 = getelementptr inbounds nuw %struct.AmplifyContext, ptr %32, i32 0, i32 15
  %34 = load ptr, ptr %33, align 8, !tbaa !30
  %35 = load ptr, ptr %8, align 8, !tbaa !22
  %36 = getelementptr inbounds nuw %struct.AmplifyContext, ptr %35, i32 0, i32 10
  %37 = load i32, ptr %36, align 8, !tbaa !32
  %38 = sext i32 %37 to i64
  %39 = getelementptr inbounds ptr, ptr %34, i64 %38
  store ptr %31, ptr %39, align 8, !tbaa !37
  %40 = load ptr, ptr %8, align 8, !tbaa !22
  %41 = getelementptr inbounds nuw %struct.AmplifyContext, ptr %40, i32 0, i32 10
  %42 = load i32, ptr %41, align 8, !tbaa !32
  %43 = add nsw i32 %42, 1
  store i32 %43, ptr %41, align 8, !tbaa !32
  store i32 0, ptr %3, align 4
  store i32 1, ptr %11, align 4
  br label %151

44:                                               ; preds = %2
  %45 = load ptr, ptr %8, align 8, !tbaa !22
  %46 = getelementptr inbounds nuw %struct.AmplifyContext, ptr %45, i32 0, i32 15
  %47 = load ptr, ptr %46, align 8, !tbaa !30
  %48 = getelementptr inbounds ptr, ptr %47, i64 0
  call void @av_frame_free(ptr noundef %48)
  %49 = load ptr, ptr %8, align 8, !tbaa !22
  %50 = getelementptr inbounds nuw %struct.AmplifyContext, ptr %49, i32 0, i32 15
  %51 = load ptr, ptr %50, align 8, !tbaa !30
  %52 = getelementptr inbounds ptr, ptr %51, i64 0
  %53 = load ptr, ptr %8, align 8, !tbaa !22
  %54 = getelementptr inbounds nuw %struct.AmplifyContext, ptr %53, i32 0, i32 15
  %55 = load ptr, ptr %54, align 8, !tbaa !30
  %56 = getelementptr inbounds ptr, ptr %55, i64 1
  %57 = load ptr, ptr %8, align 8, !tbaa !22
  %58 = getelementptr inbounds nuw %struct.AmplifyContext, ptr %57, i32 0, i32 9
  %59 = load i32, ptr %58, align 4, !tbaa !29
  %60 = sub nsw i32 %59, 1
  %61 = sext i32 %60 to i64
  %62 = mul i64 8, %61
  call void @llvm.memmove.p0.p0.i64(ptr align 8 %52, ptr align 8 %56, i64 %62, i1 false)
  %63 = load ptr, ptr %5, align 8, !tbaa !37
  %64 = load ptr, ptr %8, align 8, !tbaa !22
  %65 = getelementptr inbounds nuw %struct.AmplifyContext, ptr %64, i32 0, i32 15
  %66 = load ptr, ptr %65, align 8, !tbaa !30
  %67 = load ptr, ptr %8, align 8, !tbaa !22
  %68 = getelementptr inbounds nuw %struct.AmplifyContext, ptr %67, i32 0, i32 9
  %69 = load i32, ptr %68, align 4, !tbaa !29
  %70 = sub nsw i32 %69, 1
  %71 = sext i32 %70 to i64
  %72 = getelementptr inbounds ptr, ptr %66, i64 %71
  store ptr %63, ptr %72, align 8, !tbaa !37
  br label %73

73:                                               ; preds = %44
  %74 = load ptr, ptr %6, align 8, !tbaa !4
  %75 = getelementptr inbounds nuw %struct.AVFilterContext, ptr %74, i32 0, i32 17
  %76 = load i32, ptr %75, align 8, !tbaa !48
  %77 = icmp ne i32 %76, 0
  br i1 %77, label %123, label %78

78:                                               ; preds = %73
  %79 = load ptr, ptr %7, align 8, !tbaa !35
  %80 = load ptr, ptr %7, align 8, !tbaa !35
  %81 = getelementptr inbounds nuw %struct.AVFilterLink, ptr %80, i32 0, i32 6
  %82 = load i32, ptr %81, align 8, !tbaa !49
  %83 = load ptr, ptr %7, align 8, !tbaa !35
  %84 = getelementptr inbounds nuw %struct.AVFilterLink, ptr %83, i32 0, i32 7
  %85 = load i32, ptr %84, align 4, !tbaa !50
  %86 = call ptr @ff_get_video_buffer(ptr noundef %79, i32 noundef %82, i32 noundef %85)
  store ptr %86, ptr %10, align 8, !tbaa !37
  %87 = load ptr, ptr %10, align 8, !tbaa !37
  %88 = icmp ne ptr %87, null
  br i1 %88, label %90, label %89

89:                                               ; preds = %78
  store i32 -12, ptr %3, align 4
  store i32 1, ptr %11, align 4
  br label %151

90:                                               ; preds = %78
  %91 = load ptr, ptr %10, align 8, !tbaa !37
  %92 = load ptr, ptr %8, align 8, !tbaa !22
  %93 = getelementptr inbounds nuw %struct.AmplifyContext, ptr %92, i32 0, i32 15
  %94 = load ptr, ptr %93, align 8, !tbaa !30
  %95 = getelementptr inbounds ptr, ptr %94, i64 0
  %96 = load ptr, ptr %95, align 8, !tbaa !37
  %97 = call i32 @av_frame_copy_props(ptr noundef %91, ptr noundef %96)
  %98 = load ptr, ptr %10, align 8, !tbaa !37
  %99 = getelementptr inbounds nuw %struct.ThreadData, ptr %9, i32 0, i32 1
  store ptr %98, ptr %99, align 8, !tbaa !51
  %100 = load ptr, ptr %8, align 8, !tbaa !22
  %101 = getelementptr inbounds nuw %struct.AmplifyContext, ptr %100, i32 0, i32 15
  %102 = load ptr, ptr %101, align 8, !tbaa !30
  %103 = getelementptr inbounds nuw %struct.ThreadData, ptr %9, i32 0, i32 0
  store ptr %102, ptr %103, align 8, !tbaa !53
  %104 = load ptr, ptr %6, align 8, !tbaa !4
  %105 = load ptr, ptr %8, align 8, !tbaa !22
  %106 = getelementptr inbounds nuw %struct.AmplifyContext, ptr %105, i32 0, i32 14
  %107 = getelementptr inbounds [4 x i32], ptr %106, i64 0, i64 1
  %108 = load i32, ptr %107, align 4, !tbaa !31
  %109 = load ptr, ptr %6, align 8, !tbaa !4
  %110 = call i32 @ff_filter_get_nb_threads(ptr noundef %109) #10
  %111 = icmp sgt i32 %108, %110
  br i1 %111, label %112, label %115

112:                                              ; preds = %90
  %113 = load ptr, ptr %6, align 8, !tbaa !4
  %114 = call i32 @ff_filter_get_nb_threads(ptr noundef %113) #10
  br label %120

115:                                              ; preds = %90
  %116 = load ptr, ptr %8, align 8, !tbaa !22
  %117 = getelementptr inbounds nuw %struct.AmplifyContext, ptr %116, i32 0, i32 14
  %118 = getelementptr inbounds [4 x i32], ptr %117, i64 0, i64 1
  %119 = load i32, ptr %118, align 4, !tbaa !31
  br label %120

120:                                              ; preds = %115, %112
  %121 = phi i32 [ %114, %112 ], [ %119, %115 ]
  %122 = call i32 @ff_filter_execute(ptr noundef %104, ptr noundef @amplify_frame, ptr noundef %9, ptr noundef null, i32 noundef %121)
  br label %147

123:                                              ; preds = %73
  %124 = load ptr, ptr %8, align 8, !tbaa !22
  %125 = getelementptr inbounds nuw %struct.AmplifyContext, ptr %124, i32 0, i32 15
  %126 = load ptr, ptr %125, align 8, !tbaa !30
  %127 = load ptr, ptr %8, align 8, !tbaa !22
  %128 = getelementptr inbounds nuw %struct.AmplifyContext, ptr %127, i32 0, i32 2
  %129 = load i32, ptr %128, align 8, !tbaa !24
  %130 = sext i32 %129 to i64
  %131 = getelementptr inbounds ptr, ptr %126, i64 %130
  %132 = load ptr, ptr %131, align 8, !tbaa !37
  %133 = call ptr @av_frame_clone(ptr noundef %132)
  store ptr %133, ptr %10, align 8, !tbaa !37
  %134 = load ptr, ptr %10, align 8, !tbaa !37
  %135 = icmp ne ptr %134, null
  br i1 %135, label %137, label %136

136:                                              ; preds = %123
  store i32 -12, ptr %3, align 4
  store i32 1, ptr %11, align 4
  br label %151

137:                                              ; preds = %123
  %138 = load ptr, ptr %8, align 8, !tbaa !22
  %139 = getelementptr inbounds nuw %struct.AmplifyContext, ptr %138, i32 0, i32 15
  %140 = load ptr, ptr %139, align 8, !tbaa !30
  %141 = getelementptr inbounds ptr, ptr %140, i64 0
  %142 = load ptr, ptr %141, align 8, !tbaa !37
  %143 = getelementptr inbounds nuw %struct.AVFrame, ptr %142, i32 0, i32 9
  %144 = load i64, ptr %143, align 8, !tbaa !54
  %145 = load ptr, ptr %10, align 8, !tbaa !37
  %146 = getelementptr inbounds nuw %struct.AVFrame, ptr %145, i32 0, i32 9
  store i64 %144, ptr %146, align 8, !tbaa !54
  br label %147

147:                                              ; preds = %137, %120
  %148 = load ptr, ptr %7, align 8, !tbaa !35
  %149 = load ptr, ptr %10, align 8, !tbaa !37
  %150 = call i32 @ff_filter_frame(ptr noundef %148, ptr noundef %149)
  store i32 %150, ptr %3, align 4
  store i32 1, ptr %11, align 4
  br label %151

151:                                              ; preds = %147, %136, %89, %30
  call void @llvm.lifetime.end.p0(i64 8, ptr %10) #9
  call void @llvm.lifetime.end.p0(i64 16, ptr %9) #9
  call void @llvm.lifetime.end.p0(i64 8, ptr %8) #9
  call void @llvm.lifetime.end.p0(i64 8, ptr %7) #9
  call void @llvm.lifetime.end.p0(i64 8, ptr %6) #9
  %152 = load i32, ptr %3, align 4
  ret i32 %152
}