; Function Attrs: nounwind uwtable
define internal i32 @filter_frame(ptr noundef readonly captures(none) %0, ptr noundef %1) #2 {
  %3 = alloca %struct.ThreadData, align 8
  %4 = getelementptr inbounds nuw i8, ptr %0, i64 16
  %5 = load ptr, ptr %4, align 8, !tbaa !30
  %6 = getelementptr inbounds nuw i8, ptr %5, i64 56
  %7 = load ptr, ptr %6, align 8, !tbaa !39
  %8 = load ptr, ptr %7, align 8, !tbaa !40
  %9 = getelementptr inbounds nuw i8, ptr %5, i64 72
  %10 = load ptr, ptr %9, align 8, !tbaa !4
  call void @llvm.lifetime.start.p0(i64 16, ptr nonnull %3) #8
  %11 = getelementptr inbounds nuw i8, ptr %10, i64 48
  %12 = load i32, ptr %11, align 8, !tbaa !27
  %13 = getelementptr inbounds nuw i8, ptr %10, i64 44
  %14 = load i32, ptr %13, align 4, !tbaa !25
  %15 = icmp slt i32 %12, %14
  %16 = getelementptr inbounds nuw i8, ptr %10, i64 96
  %17 = load ptr, ptr %16, align 8, !tbaa !26
  br i1 %15, label %18, label %22

18:                                               ; preds = %2
  %19 = sext i32 %12 to i64
  %20 = getelementptr inbounds ptr, ptr %17, i64 %19
  store ptr %1, ptr %20, align 8, !tbaa !42
  %21 = add nsw i32 %12, 1
  store i32 %21, ptr %11, align 8, !tbaa !27
  br label %67

22:                                               ; preds = %2
  tail call void @av_frame_free(ptr noundef %17) #8
  %23 = load ptr, ptr %16, align 8, !tbaa !26
  %24 = getelementptr inbounds nuw i8, ptr %23, i64 8
  %25 = load i32, ptr %13, align 4, !tbaa !25
  %26 = add nsw i32 %25, -1
  %27 = sext i32 %26 to i64
  %28 = shl nsw i64 %27, 3
  tail call void @llvm.memmove.p0.p0.i64(ptr align 8 %23, ptr nonnull align 8 %24, i64 %28, i1 false)
  %29 = load ptr, ptr %16, align 8, !tbaa !26
  %30 = load i32, ptr %13, align 4, !tbaa !25
  %31 = sext i32 %30 to i64
  %32 = getelementptr ptr, ptr %29, i64 %31
  %33 = getelementptr i8, ptr %32, i64 -8
  store ptr %1, ptr %33, align 8, !tbaa !42
  %34 = getelementptr inbounds nuw i8, ptr %5, i64 128
  %35 = load i32, ptr %34, align 8, !tbaa !44
  %.not = icmp eq i32 %35, 0
  br i1 %.not, label %36, label %52

36:                                               ; preds = %22
  %37 = getelementptr inbounds nuw i8, ptr %8, i64 40
  %38 = load i32, ptr %37, align 8, !tbaa !45
  %39 = getelementptr inbounds nuw i8, ptr %8, i64 44
  %40 = load i32, ptr %39, align 4, !tbaa !46
  %41 = tail call ptr @ff_get_video_buffer(ptr noundef %8, i32 noundef %38, i32 noundef %40) #8
  %.not43 = icmp eq ptr %41, null
  br i1 %.not43, label %67, label %42

42:                                               ; preds = %36
  %43 = load ptr, ptr %16, align 8, !tbaa !26
  %44 = load ptr, ptr %43, align 8, !tbaa !42
  %45 = tail call i32 @av_frame_copy_props(ptr noundef nonnull %41, ptr noundef %44) #8
  %46 = getelementptr inbounds nuw i8, ptr %3, i64 8
  store ptr %41, ptr %46, align 8, !tbaa !47
  %47 = load ptr, ptr %16, align 8, !tbaa !26
  store ptr %47, ptr %3, align 8, !tbaa !49
  %48 = getelementptr inbounds nuw i8, ptr %10, i64 80
  %49 = load i32, ptr %48, align 4, !tbaa !50
  %50 = tail call i32 @ff_filter_get_nb_threads(ptr noundef nonnull %5) #9
  %. = tail call i32 @llvm.smin.i32(i32 %49, i32 %50)
  %51 = call i32 @ff_filter_execute(ptr noundef nonnull %5, ptr noundef nonnull @amplify_frame, ptr noundef nonnull %3, ptr noundef null, i32 noundef %.) #8
  br label %65

52:                                               ; preds = %22
  %53 = getelementptr inbounds nuw i8, ptr %10, i64 16
  %54 = load i32, ptr %53, align 8, !tbaa !20
  %55 = sext i32 %54 to i64
  %56 = getelementptr inbounds ptr, ptr %29, i64 %55
  %57 = load ptr, ptr %56, align 8, !tbaa !42
  %58 = tail call ptr @av_frame_clone(ptr noundef %57) #8
  %.not44 = icmp eq ptr %58, null
  br i1 %.not44, label %67, label %59

59:                                               ; preds = %52
  %60 = load ptr, ptr %16, align 8, !tbaa !26
  %61 = load ptr, ptr %60, align 8, !tbaa !42
  %62 = getelementptr inbounds nuw i8, ptr %61, i64 136
  %63 = load i64, ptr %62, align 8, !tbaa !51
  %64 = getelementptr inbounds nuw i8, ptr %58, i64 136
  store i64 %63, ptr %64, align 8, !tbaa !51
  br label %65

65:                                               ; preds = %59, %42
  %.0 = phi ptr [ %58, %59 ], [ %41, %42 ]
  %66 = call i32 @ff_filter_frame(ptr noundef %8, ptr noundef nonnull %.0) #8
  br label %67

67:                                               ; preds = %52, %36, %65, %18
  %.037 = phi i32 [ 0, %18 ], [ %66, %65 ], [ -12, %36 ], [ -12, %52 ]
  call void @llvm.lifetime.end.p0(i64 16, ptr nonnull %3) #8
  ret i32 %.037
}